target datalayout = "e-m:e-p270:32:32-p271:32:32-p272:64:64-i64:64-i128:128-f80:128-n8:16:32:64-S128"
target triple = "x86_64-pc-linux-gnu"

%class.btSequentialImpulseConstraintSolver = type { %class.btConstraintSolver, %class.btAlignedObjectArray, %class.btAlignedObjectArray.0, %class.btAlignedObjectArray.0, %class.btAlignedObjectArray.0, %class.btAlignedObjectArray.0, %class.btAlignedObjectArray.2, %class.btAlignedObjectArray.2, %class.btAlignedObjectArray.2, %class.btAlignedObjectArray.4, i32, i32, %class.btAlignedObjectArray.2, ptr, ptr, ptr, i32, float, i64, %struct.btSolverAnalyticsData }
%class.btConstraintSolver = type { ptr }
%class.btAlignedObjectArray = type <{ [4 x i8], i32, i32, [4 x i8], ptr, i8, [7 x i8] }>
%class.btAlignedObjectArray.0 = type <{ [4 x i8], i32, i32, [4 x i8], ptr, i8, [7 x i8] }>
%class.btAlignedObjectArray.4 = type <{ [4 x i8], i32, i32, [4 x i8], ptr, i8, [7 x i8] }>
%struct.btSolverAnalyticsData = type { i32, i32, i32, i32, i32, double }
%class.btAlignedObjectArray.2 = type <{ [4 x i8], i32, i32, [4 x i8], ptr, i8, [7 x i8] }>
%class.CProfileSample = type { i8 }
%class.btVector3 = type { [4 x float] }
%struct.btSolverConstraint = type { %class.btVector3, %class.btVector3, %class.btVector3, %class.btVector3, %class.btVector3, %class.btVector3, float, float, float, float, float, float, float, float, float, %union.anon.12, i32, i32, i32, i32 }
%union.anon.12 = type { ptr }
%"struct.btTypedConstraint::btConstraintInfo1" = type { i32, i32 }
%"struct.btSequentialImpulseConstraintSolverMt::JointParams" = type { i32, i32, i32 }
%class.btAlignedObjectArray.20 = type <{ [4 x i8], i32, i32, [4 x i8], ptr, i8, [7 x i8] }>

@.str.9 = private unnamed_addr constant [30 x i8] c"internalConvertMultipleJoints\00", align 1

; Function Attrs: inlinehint mustprogress nounwind uwtable
define linkonce_odr dso_local noundef nonnull align 8 dereferenceable(160) ptr @_ZN20btAlignedObjectArrayI18btSolverConstraintEixEi(ptr noundef nonnull align 8 dereferenceable(25) %0, i32 noundef %1) #4 comdat align 2 {
  %3 = alloca ptr, align 8
  %4 = alloca i32, align 4
  store ptr %0, ptr %3, align 8, !tbaa !98
  store i32 %1, ptr %4, align 4, !tbaa !9
  %5 = load ptr, ptr %3, align 8
  %6 = getelementptr inbounds nuw %class.btAlignedObjectArray.0, ptr %5, i32 0, i32 4
  %7 = load ptr, ptr %6, align 8, !tbaa !100
  %8 = load i32, ptr %4, align 4, !tbaa !9
  %9 = sext i32 %8 to i64
  %10 = getelementptr inbounds %struct.btSolverConstraint, ptr %7, i64 %9
  ret ptr %10
}

; Function Attrs: inlinehint mustprogress nounwind uwtable
define linkonce_odr dso_local noundef nonnull align 4 dereferenceable(8) ptr @_ZN20btAlignedObjectArrayIN17btTypedConstraint17btConstraintInfo1EEixEi(ptr noundef nonnull align 8 dereferenceable(25) %0, i32 noundef %1) #4 comdat align 2 {
  %3 = alloca ptr, align 8
  %4 = alloca i32, align 4
  store ptr %0, ptr %3, align 8, !tbaa !201
  store i32 %1, ptr %4, align 4, !tbaa !9
  %5 = load ptr, ptr %3, align 8
  %6 = getelementptr inbounds nuw %class.btAlignedObjectArray.4, ptr %5, i32 0, i32 4
  %7 = load ptr, ptr %6, align 8, !tbaa !203
  %8 = load i32, ptr %4, align 4, !tbaa !9
  %9 = sext i32 %8 to i64
  %10 = getelementptr inbounds %"struct.btTypedConstraint::btConstraintInfo1", ptr %7, i64 %9
  ret ptr %10
}

; Function Attrs: inlinehint mustprogress nounwind uwtable
define linkonce_odr dso_local noundef nonnull align 4 dereferenceable(12) ptr @_ZNK20btAlignedObjectArrayIN37btSequentialImpulseConstraintSolverMt11JointParamsEEixEi(ptr noundef nonnull align 8 dereferenceable(25) %0, i32 noundef %1) #4 comdat align 2 {
  %3 = alloca ptr, align 8
  %4 = alloca i32, align 4
  store ptr %0, ptr %3, align 8, !tbaa !208
  store i32 %1, ptr %4, align 4, !tbaa !9
  %5 = load ptr, ptr %3, align 8
  %6 = getelementptr inbounds nuw %class.btAlignedObjectArray.20, ptr %5, i32 0, i32 4
  %7 = load ptr, ptr %6, align 8, !tbaa !217
  %8 = load i32, ptr %4, align 4, !tbaa !9
  %9 = sext i32 %8 to i64
  %10 = getelementptr inbounds %"struct.btSequentialImpulseConstraintSolverMt::JointParams", ptr %7, i64 %9
  ret ptr %10
}

; Function Attrs: mustprogress uwtable
define dso_local void @_ZN37btSequentialImpulseConstraintSolverMt29internalConvertMultipleJointsERK20btAlignedObjectArrayINS_11JointParamsEEPP17btTypedConstraintiiRK19btContactSolverInfo(ptr noundef nonnull align 8 dereferenceable(920) %0, ptr noundef nonnull align 8 dereferenceable(25) %1, ptr noundef %2, i32 noundef %3, i32 noundef %4, ptr noundef nonnull align 4 dereferenceable(128) %5) #2 align 2 personality ptr @__gxx_personality_v0 {
  %7 = alloca ptr, align 8
  %8 = alloca ptr, align 8
  %9 = alloca ptr, align 8
  %10 = alloca i32, align 4
  %11 = alloca i32, align 4
  %12 = alloca ptr, align 8
  %13 = alloca %class.CProfileSample, align 1
  %14 = alloca i32, align 4
  %15 = alloca ptr, align 8
  %16 = alloca ptr, align 8
  %17 = alloca i32, align 4
  %18 = alloca i32, align 4
  %19 = alloca ptr, align 8
  %20 = alloca ptr, align 8
  %21 = alloca ptr, align 8
  store ptr %0, ptr %7, align 8, !tbaa !12
  store ptr %1, ptr %8, align 8, !tbaa !208
  store ptr %2, ptr %9, align 8, !tbaa !190
  store i32 %3, ptr %10, align 4, !tbaa !9
  store i32 %4, ptr %11, align 4, !tbaa !9
  store ptr %5, ptr %12, align 8, !tbaa !66
  %22 = load ptr, ptr %7, align 8
  call void @llvm.lifetime.start.p0(i64 1, ptr %13) #16
  call void @_ZN14CProfileSampleC1EPKc(ptr noundef nonnull align 1 dereferenceable(1) %13, ptr noundef @.str.9)
  call void @llvm.lifetime.start.p0(i64 4, ptr %14) #16
  %23 = load i32, ptr %10, align 4, !tbaa !9
  store i32 %23, ptr %14, align 4, !tbaa !9
  br label %24

24:                                               ; preds = %83, %6
  %25 = load i32, ptr %14, align 4, !tbaa !9
  %26 = load i32, ptr %11, align 4, !tbaa !9
  %27 = icmp slt i32 %25, %26
  br i1 %27, label %29, label %28

28:                                               ; preds = %24
  call void @llvm.lifetime.end.p0(i64 4, ptr %14) #16
  br label %87

29:                                               ; preds = %24
  call void @llvm.lifetime.start.p0(i64 8, ptr %15) #16
  %30 = load ptr, ptr %8, align 8, !tbaa !208
  %31 = load i32, ptr %14, align 4, !tbaa !9
  %32 = invoke noundef nonnull align 4 dereferenceable(12) ptr @_ZNK20btAlignedObjectArrayIN37btSequentialImpulseConstraintSolverMt11JointParamsEEixEi(ptr noundef nonnull align 8 dereferenceable(25) %30, i32 noundef %31)
          to label %33 unwind label %64

33:                                               ; preds = %29
  store ptr %32, ptr %15, align 8, !tbaa !210
  call void @llvm.lifetime.start.p0(i64 4, ptr %18) #16
  %34 = load ptr, ptr %15, align 8, !tbaa !210
  %35 = getelementptr inbounds nuw %"struct.btSequentialImpulseConstraintSolverMt::JointParams", ptr %34, i32 0, i32 0
  %36 = load i32, ptr %35, align 4, !tbaa !212
  store i32 %36, ptr %18, align 4, !tbaa !9
  %37 = load i32, ptr %18, align 4, !tbaa !9
  %38 = icmp ne i32 %37, -1
  br i1 %38, label %39, label %82

39:                                               ; preds = %33
  call void @llvm.lifetime.start.p0(i64 8, ptr %19) #16
  %40 = getelementptr inbounds nuw %class.btSequentialImpulseConstraintSolver, ptr %22, i32 0, i32 9
  %41 = load i32, ptr %14, align 4, !tbaa !9
  %42 = invoke noundef nonnull align 4 dereferenceable(8) ptr @_ZN20btAlignedObjectArrayIN17btTypedConstraint17btConstraintInfo1EEixEi(ptr noundef nonnull align 8 dereferenceable(25) %40, i32 noundef %41)
          to label %43 unwind label %68

43:                                               ; preds = %39
  store ptr %42, ptr %19, align 8, !tbaa !194
  call void @llvm.lifetime.start.p0(i64 8, ptr %20) #16
  %44 = getelementptr inbounds nuw %class.btSequentialImpulseConstraintSolver, ptr %22, i32 0, i32 3
  %45 = load i32, ptr %18, align 4, !tbaa !9
  %46 = invoke noundef nonnull align 8 dereferenceable(160) ptr @_ZN20btAlignedObjectArrayI18btSolverConstraintEixEi(ptr noundef nonnull align 8 dereferenceable(25) %44, i32 noundef %45)
          to label %47 unwind label %72

47:                                               ; preds = %43
  store ptr %46, ptr %20, align 8, !tbaa !68
  call void @llvm.lifetime.start.p0(i64 8, ptr %21) #16
  %48 = load ptr, ptr %9, align 8, !tbaa !190
  %49 = load i32, ptr %14, align 4, !tbaa !9
  %50 = sext i32 %49 to i64
  %51 = getelementptr inbounds ptr, ptr %48, i64 %50
  %52 = load ptr, ptr %51, align 8, !tbaa !192
  store ptr %52, ptr %21, align 8, !tbaa !192
  %53 = load ptr, ptr %20, align 8, !tbaa !68
  %54 = load ptr, ptr %21, align 8, !tbaa !192
  %55 = load ptr, ptr %19, align 8, !tbaa !194
  %56 = load ptr, ptr %15, align 8, !tbaa !210
  %57 = getelementptr inbounds nuw %"struct.btSequentialImpulseConstraintSolverMt::JointParams", ptr %56, i32 0, i32 1
  %58 = load i32, ptr %57, align 4, !tbaa !214
  %59 = load ptr, ptr %15, align 8, !tbaa !210
  %60 = getelementptr inbounds nuw %"struct.btSequentialImpulseConstraintSolverMt::JointParams", ptr %59, i32 0, i32 2
  %61 = load i32, ptr %60, align 4, !tbaa !215
  %62 = load ptr, ptr %12, align 8, !tbaa !66
  invoke void @_ZN35btSequentialImpulseConstraintSolver12convertJointEP18btSolverConstraintP17btTypedConstraintRKNS2_17btConstraintInfo1EiiRK19btContactSolverInfo(ptr noundef nonnull align 8 dereferenceable(408) %22, ptr noundef %53, ptr noundef %54, ptr noundef nonnull align 4 dereferenceable(8) %55, i32 noundef %58, i32 noundef %61, ptr noundef nonnull align 4 dereferenceable(128) %62)
          to label %63 unwind label %76

63:                                               ; preds = %47
  call void @llvm.lifetime.end.p0(i64 8, ptr %21) #16
  call void @llvm.lifetime.end.p0(i64 8, ptr %20) #16
  call void @llvm.lifetime.end.p0(i64 8, ptr %19) #16
  br label %82

64:                                               ; preds = %29
  %65 = landingpad { ptr, i32 }
          cleanup
  %66 = extractvalue { ptr, i32 } %65, 0
  store ptr %66, ptr %16, align 8
  %67 = extractvalue { ptr, i32 } %65, 1
  store i32 %67, ptr %17, align 4
  br label %86

68:                                               ; preds = %39
  %69 = landingpad { ptr, i32 }
          cleanup
  %70 = extractvalue { ptr, i32 } %69, 0
  store ptr %70, ptr %16, align 8
  %71 = extractvalue { ptr, i32 } %69, 1
  store i32 %71, ptr %17, align 4
  br label %81

72:                                               ; preds = %43
  %73 = landingpad { ptr, i32 }
          cleanup
  %74 = extractvalue { ptr, i32 } %73, 0
  store ptr %74, ptr %16, align 8
  %75 = extractvalue { ptr, i32 } %73, 1
  store i32 %75, ptr %17, align 4
  br label %80

76:                                               ; preds = %47
  %77 = landingpad { ptr, i32 }
          cleanup
  %78 = extractvalue { ptr, i32 } %77, 0
  store ptr %78, ptr %16, align 8
  %79 = extractvalue { ptr, i32 } %77, 1
  store i32 %79, ptr %17, align 4
  call void @llvm.lifetime.end.p0(i64 8, ptr %21) #16
  br label %80

80:                                               ; preds = %76, %72
  call void @llvm.lifetime.end.p0(i64 8, ptr %20) #16
  br label %81

81:                                               ; preds = %80, %68
  call void @llvm.lifetime.end.p0(i64 8, ptr %19) #16
  call void @llvm.lifetime.end.p0(i64 4, ptr %18) #16
  br label %86

82:                                               ; preds = %63, %33
  call void @llvm.lifetime.end.p0(i64 4, ptr %18) #16
  call void @llvm.lifetime.end.p0(i64 8, ptr %15) #16
  br label %83

83:                                               ; preds = %82
  %84 = load i32, ptr %14, align 4, !tbaa !9
  %85 = add nsw i32 %84, 1
  store i32 %85, ptr %14, align 4, !tbaa !9
  br label %24, !llvm.loop !216

86:                                               ; preds = %81, %64
  call void @llvm.lifetime.end.p0(i64 8, ptr %15) #16
  call void @llvm.lifetime.end.p0(i64 4, ptr %14) #16
  call void @_ZN14CProfileSampleD1Ev(ptr noundef nonnull align 1 dereferenceable(1) %13) #16
  call void @llvm.lifetime.end.p0(i64 1, ptr %13) #16
  br label %88

87:                                               ; preds = %28
  call void @_ZN14CProfileSampleD1Ev(ptr noundef nonnull align 1 dereferenceable(1) %13) #16
  call void @llvm.lifetime.end.p0(i64 1, ptr %13) #16
  ret void

88:                                               ; preds = %86
  %89 = load ptr, ptr %16, align 8
  %90 = load i32, ptr %17, align 4
  %91 = insertvalue { ptr, i32 } poison, ptr %89, 0
  %92 = insertvalue { ptr, i32 } %91, i32 %90, 1
  resume { ptr, i32 } %92
}