; Function Attrs: mustprogress uwtable
define dso_local void @_ZN37btSequentialImpulseConstraintSolverMt29internalConvertMultipleJointsERK20btAlignedObjectArrayINS_11JointParamsEEPP17btTypedConstraintiiRK19btContactSolverInfo(ptr noundef nonnull align 8 dereferenceable(920) %0, ptr noundef nonnull readonly align 8 captures(none) dereferenceable(25) %1, ptr noundef readonly captures(none) %2, i32 noundef %3, i32 noundef %4, ptr noundef nonnull align 4 dereferenceable(128) %5) local_unnamed_addr #0 align 2 personality ptr @__gxx_personality_v0 {
  %7 = alloca %class.CProfileSample, align 1
  call void @llvm.lifetime.start.p0(i64 1, ptr nonnull %7) #16
  call void @_ZN14CProfileSampleC1EPKc(ptr noundef nonnull align 1 dereferenceable(1) %7, ptr noundef nonnull @.str.9)
  %8 = icmp slt i32 %3, %4
  br i1 %8, label %.lr.ph, label %._crit_edge

.lr.ph:                                           ; preds = %6
  %9 = getelementptr inbounds nuw i8, ptr %1, i64 16
  %10 = getelementptr inbounds nuw i8, ptr %0, i64 280
  %11 = getelementptr inbounds nuw i8, ptr %0, i64 88
  %12 = sext i32 %3 to i64
  br label %13

._crit_edge:                                      ; preds = %31, %6
  call void @_ZN14CProfileSampleD1Ev(ptr noundef nonnull align 1 dereferenceable(1) %7) #16
  call void @llvm.lifetime.end.p0(i64 1, ptr nonnull %7) #16
  ret void

13:                                               ; preds = %.lr.ph, %31
  %indvars.iv = phi i64 [ %12, %.lr.ph ], [ %indvars.iv.next, %31 ]
  %14 = load ptr, ptr %9, align 8, !tbaa !175
  %15 = getelementptr inbounds %"struct.btSequentialImpulseConstraintSolverMt::JointParams", ptr %14, i64 %indvars.iv
  %16 = load i32, ptr %15, align 4, !tbaa !179
  %.not = icmp eq i32 %16, -1
  br i1 %.not, label %31, label %17

17:                                               ; preds = %13
  %18 = load ptr, ptr %10, align 8, !tbaa !165
  %19 = getelementptr inbounds %"struct.btTypedConstraint::btConstraintInfo1", ptr %18, i64 %indvars.iv
  %20 = load ptr, ptr %11, align 8, !tbaa !68
  %21 = sext i32 %16 to i64
  %22 = getelementptr inbounds %struct.btSolverConstraint, ptr %20, i64 %21
  %23 = getelementptr inbounds ptr, ptr %2, i64 %indvars.iv
  %24 = load ptr, ptr %23, align 8, !tbaa !163
  %25 = getelementptr inbounds nuw i8, ptr %15, i64 4
  %26 = load i32, ptr %25, align 4, !tbaa !181
  %27 = getelementptr inbounds nuw i8, ptr %15, i64 8
  %28 = load i32, ptr %27, align 4, !tbaa !182
  invoke void @_ZN35btSequentialImpulseConstraintSolver12convertJointEP18btSolverConstraintP17btTypedConstraintRKNS2_17btConstraintInfo1EiiRK19btContactSolverInfo(ptr noundef nonnull align 8 dereferenceable(408) %0, ptr noundef nonnull %22, ptr noundef %24, ptr noundef nonnull align 4 dereferenceable(8) %19, i32 noundef %26, i32 noundef %28, ptr noundef nonnull align 4 dereferenceable(128) %5)
          to label %31 unwind label %29

29:                                               ; preds = %17
  %30 = landingpad { ptr, i32 }
          cleanup
  call void @_ZN14CProfileSampleD1Ev(ptr noundef nonnull align 1 dereferenceable(1) %7) #16
  call void @llvm.lifetime.end.p0(i64 1, ptr nonnull %7) #16
  resume { ptr, i32 } %30

31:                                               ; preds = %17, %13
  %indvars.iv.next = add nsw i64 %indvars.iv, 1
  %lftr.wideiv = trunc i64 %indvars.iv.next to i32
  %exitcond.not = icmp eq i32 %4, %lftr.wideiv
  br i1 %exitcond.not, label %._crit_edge, label %13, !llvm.loop !183
}